target datalayout = "e-m:e-p270:32:32-p271:32:32-p272:64:64-i64:64-i128:128-f80:128-n8:16:32:64-S128"
target triple = "x86_64-pc-linux-gnu"

%struct._object = type { %union.anon, ptr }
%union.anon = type { i64 }
%struct._structmodulestate = type { ptr, ptr, ptr, ptr }
%struct.PyModuleObject = type { %struct._object, ptr, ptr, ptr, ptr, ptr }
%struct._formatdef = type { i8, i64, i64, ptr, ptr }

@.str.30 = private unnamed_addr constant [13 x i8] c"struct.error\00", align 1
@.str.31 = private unnamed_addr constant [6 x i8] c"error\00", align 1
@PyStructType_spec = internal global { ptr, i32, i32, i32, [4 x i8], ptr } { ptr @.str.32, i32 56, i32 0, i32 17664, [4 x i8] zeroinitializer, ptr @PyStructType_slots }, align 8
@unpackiter_type_spec = internal global { ptr, i32, i32, i32, [4 x i8], ptr } { ptr @.str.59, i32 112, i32 0, i32 16768, [4 x i8] zeroinitializer, ptr @unpackiter_type_slots }, align 8

; Function Attrs: inlinehint nounwind uwtable
define internal ptr @_PyModule_GetState(ptr noundef %0) #2 {
  %2 = alloca ptr, align 8
  store ptr %0, ptr %2, align 8, !tbaa !3
  %3 = load ptr, ptr %2, align 8, !tbaa !3
  %4 = getelementptr inbounds nuw %struct.PyModuleObject, ptr %3, i32 0, i32 3
  %5 = load ptr, ptr %4, align 8, !tbaa !24
  ret ptr %5
}

; Function Attrs: inlinehint nounwind uwtable
define internal ptr @get_struct_state(ptr noundef %0) #2 {
  %2 = alloca ptr, align 8
  %3 = alloca ptr, align 8
  store ptr %0, ptr %2, align 8, !tbaa !3
  call void @llvm.lifetime.start.p0(i64 8, ptr %3) #8
  %4 = load ptr, ptr %2, align 8, !tbaa !3
  %5 = call ptr @_PyModule_GetState(ptr noundef %4)
  store ptr %5, ptr %3, align 8, !tbaa !8
  %6 = load ptr, ptr %3, align 8, !tbaa !8
  call void @llvm.lifetime.end.p0(i64 8, ptr %3) #8
  ret ptr %6
}

; Function Attrs: nounwind uwtable
define internal i32 @_structmodule_exec(ptr noundef %0) #0 {
  %2 = alloca i32, align 4
  %3 = alloca ptr, align 8
  %4 = alloca ptr, align 8
  %5 = alloca i32, align 4
  %6 = alloca ptr, align 8
  %7 = alloca ptr, align 8
  %8 = alloca ptr, align 8
  store ptr %0, ptr %3, align 8, !tbaa !3
  call void @llvm.lifetime.start.p0(i64 8, ptr %4) #8
  %9 = load ptr, ptr %3, align 8, !tbaa !3
  %10 = call ptr @get_struct_state(ptr noundef %9)
  store ptr %10, ptr %4, align 8, !tbaa !8
  %11 = call ptr @PyDict_New()
  %12 = load ptr, ptr %4, align 8, !tbaa !8
  %13 = getelementptr inbounds nuw %struct._structmodulestate, ptr %12, i32 0, i32 0
  store ptr %11, ptr %13, align 8, !tbaa !9
  %14 = load ptr, ptr %4, align 8, !tbaa !8
  %15 = getelementptr inbounds nuw %struct._structmodulestate, ptr %14, i32 0, i32 0
  %16 = load ptr, ptr %15, align 8, !tbaa !9
  %17 = icmp eq ptr %16, null
  br i1 %17, label %18, label %19

18:                                               ; preds = %1
  store i32 -1, ptr %2, align 4
  store i32 1, ptr %5, align 4
  br label %151

19:                                               ; preds = %1
  %20 = load ptr, ptr %3, align 8, !tbaa !3
  %21 = call ptr @PyType_FromModuleAndSpec(ptr noundef %20, ptr noundef @PyStructType_spec, ptr noundef null)
  %22 = load ptr, ptr %4, align 8, !tbaa !8
  %23 = getelementptr inbounds nuw %struct._structmodulestate, ptr %22, i32 0, i32 1
  store ptr %21, ptr %23, align 8, !tbaa !13
  %24 = load ptr, ptr %4, align 8, !tbaa !8
  %25 = getelementptr inbounds nuw %struct._structmodulestate, ptr %24, i32 0, i32 1
  %26 = load ptr, ptr %25, align 8, !tbaa !13
  %27 = icmp eq ptr %26, null
  br i1 %27, label %28, label %29

28:                                               ; preds = %19
  store i32 -1, ptr %2, align 4
  store i32 1, ptr %5, align 4
  br label %151

29:                                               ; preds = %19
  %30 = load ptr, ptr %3, align 8, !tbaa !3
  %31 = load ptr, ptr %4, align 8, !tbaa !8
  %32 = getelementptr inbounds nuw %struct._structmodulestate, ptr %31, i32 0, i32 1
  %33 = load ptr, ptr %32, align 8, !tbaa !13
  %34 = call i32 @PyModule_AddType(ptr noundef %30, ptr noundef %33)
  %35 = icmp slt i32 %34, 0
  br i1 %35, label %36, label %37

36:                                               ; preds = %29
  store i32 -1, ptr %2, align 4
  store i32 1, ptr %5, align 4
  br label %151

37:                                               ; preds = %29
  %38 = load ptr, ptr %3, align 8, !tbaa !3
  %39 = call ptr @PyType_FromModuleAndSpec(ptr noundef %38, ptr noundef @unpackiter_type_spec, ptr noundef null)
  %40 = load ptr, ptr %4, align 8, !tbaa !8
  %41 = getelementptr inbounds nuw %struct._structmodulestate, ptr %40, i32 0, i32 2
  store ptr %39, ptr %41, align 8, !tbaa !14
  %42 = load ptr, ptr %4, align 8, !tbaa !8
  %43 = getelementptr inbounds nuw %struct._structmodulestate, ptr %42, i32 0, i32 2
  %44 = load ptr, ptr %43, align 8, !tbaa !14
  %45 = icmp eq ptr %44, null
  br i1 %45, label %46, label %47

46:                                               ; preds = %37
  store i32 -1, ptr %2, align 4
  store i32 1, ptr %5, align 4
  br label %151

47:                                               ; preds = %37
  call void @llvm.lifetime.start.p0(i64 8, ptr %6) #8
  store ptr @native_table, ptr %6, align 8, !tbaa !49
  call void @llvm.lifetime.start.p0(i64 8, ptr %7) #8
  call void @llvm.lifetime.start.p0(i64 8, ptr %8) #8
  store ptr @lilendian_table, ptr %7, align 8, !tbaa !49
  br label %48

48:                                               ; preds = %130, %47
  %49 = load ptr, ptr %6, align 8, !tbaa !49
  %50 = getelementptr inbounds nuw %struct._formatdef, ptr %49, i32 0, i32 0
  %51 = load i8, ptr %50, align 8, !tbaa !52
  %52 = sext i8 %51 to i32
  %53 = icmp ne i32 %52, 0
  br i1 %53, label %54, label %60

54:                                               ; preds = %48
  %55 = load ptr, ptr %7, align 8, !tbaa !49
  %56 = getelementptr inbounds nuw %struct._formatdef, ptr %55, i32 0, i32 0
  %57 = load i8, ptr %56, align 8, !tbaa !52
  %58 = sext i8 %57 to i32
  %59 = icmp ne i32 %58, 0
  br label %60

60:                                               ; preds = %54, %48
  %61 = phi i1 [ false, %48 ], [ %59, %54 ]
  br i1 %61, label %62, label %133

62:                                               ; preds = %60
  %63 = load ptr, ptr %7, align 8, !tbaa !49
  store ptr %63, ptr %8, align 8, !tbaa !49
  br label %64

64:                                               ; preds = %127, %62
  %65 = load ptr, ptr %8, align 8, !tbaa !49
  %66 = getelementptr inbounds nuw %struct._formatdef, ptr %65, i32 0, i32 0
  %67 = load i8, ptr %66, align 8, !tbaa !52
  %68 = sext i8 %67 to i32
  %69 = icmp ne i32 %68, 0
  br i1 %69, label %70, label %130

70:                                               ; preds = %64
  %71 = load ptr, ptr %8, align 8, !tbaa !49
  %72 = getelementptr inbounds nuw %struct._formatdef, ptr %71, i32 0, i32 0
  %73 = load i8, ptr %72, align 8, !tbaa !52
  %74 = sext i8 %73 to i32
  %75 = load ptr, ptr %6, align 8, !tbaa !49
  %76 = getelementptr inbounds nuw %struct._formatdef, ptr %75, i32 0, i32 0
  %77 = load i8, ptr %76, align 8, !tbaa !52
  %78 = sext i8 %77 to i32
  %79 = icmp eq i32 %74, %78
  br i1 %79, label %80, label %127

80:                                               ; preds = %70
  %81 = load ptr, ptr %8, align 8, !tbaa !49
  %82 = load ptr, ptr %7, align 8, !tbaa !49
  %83 = icmp eq ptr %81, %82
  br i1 %83, label %84, label %87

84:                                               ; preds = %80
  %85 = load ptr, ptr %7, align 8, !tbaa !49
  %86 = getelementptr %struct._formatdef, ptr %85, i32 1
  store ptr %86, ptr %7, align 8, !tbaa !49
  br label %87

87:                                               ; preds = %84, %80
  %88 = load ptr, ptr %8, align 8, !tbaa !49
  %89 = getelementptr inbounds nuw %struct._formatdef, ptr %88, i32 0, i32 1
  %90 = load i64, ptr %89, align 8, !tbaa !75
  %91 = load ptr, ptr %6, align 8, !tbaa !49
  %92 = getelementptr inbounds nuw %struct._formatdef, ptr %91, i32 0, i32 1
  %93 = load i64, ptr %92, align 8, !tbaa !75
  %94 = icmp ne i64 %90, %93
  br i1 %94, label %95, label %96

95:                                               ; preds = %87
  br label %130

96:                                               ; preds = %87
  %97 = load ptr, ptr %8, align 8, !tbaa !49
  %98 = getelementptr inbounds nuw %struct._formatdef, ptr %97, i32 0, i32 0
  %99 = load i8, ptr %98, align 8, !tbaa !52
  %100 = sext i8 %99 to i32
  %101 = icmp eq i32 %100, 100
  br i1 %101, label %108, label %102

102:                                              ; preds = %96
  %103 = load ptr, ptr %8, align 8, !tbaa !49
  %104 = getelementptr inbounds nuw %struct._formatdef, ptr %103, i32 0, i32 0
  %105 = load i8, ptr %104, align 8, !tbaa !52
  %106 = sext i8 %105 to i32
  %107 = icmp eq i32 %106, 102
  br i1 %107, label %108, label %109

108:                                              ; preds = %102, %96
  br label %130

109:                                              ; preds = %102
  %110 = load ptr, ptr %8, align 8, !tbaa !49
  %111 = getelementptr inbounds nuw %struct._formatdef, ptr %110, i32 0, i32 0
  %112 = load i8, ptr %111, align 8, !tbaa !52
  %113 = sext i8 %112 to i32
  %114 = icmp eq i32 %113, 63
  br i1 %114, label %115, label %116

115:                                              ; preds = %109
  br label %130

116:                                              ; preds = %109
  %117 = load ptr, ptr %6, align 8, !tbaa !49
  %118 = getelementptr inbounds nuw %struct._formatdef, ptr %117, i32 0, i32 4
  %119 = load ptr, ptr %118, align 8, !tbaa !55
  %120 = load ptr, ptr %8, align 8, !tbaa !49
  %121 = getelementptr inbounds nuw %struct._formatdef, ptr %120, i32 0, i32 4
  store ptr %119, ptr %121, align 8, !tbaa !55
  %122 = load ptr, ptr %6, align 8, !tbaa !49
  %123 = getelementptr inbounds nuw %struct._formatdef, ptr %122, i32 0, i32 3
  %124 = load ptr, ptr %123, align 8, !tbaa !72
  %125 = load ptr, ptr %8, align 8, !tbaa !49
  %126 = getelementptr inbounds nuw %struct._formatdef, ptr %125, i32 0, i32 3
  store ptr %124, ptr %126, align 8, !tbaa !72
  br label %130

127:                                              ; preds = %70
  %128 = load ptr, ptr %8, align 8, !tbaa !49
  %129 = getelementptr %struct._formatdef, ptr %128, i32 1
  store ptr %129, ptr %8, align 8, !tbaa !49
  br label %64, !llvm.loop !76

130:                                              ; preds = %116, %115, %108, %95, %64
  %131 = load ptr, ptr %6, align 8, !tbaa !49
  %132 = getelementptr %struct._formatdef, ptr %131, i32 1
  store ptr %132, ptr %6, align 8, !tbaa !49
  br label %48, !llvm.loop !77

133:                                              ; preds = %60
  call void @llvm.lifetime.end.p0(i64 8, ptr %8) #8
  call void @llvm.lifetime.end.p0(i64 8, ptr %7) #8
  call void @llvm.lifetime.end.p0(i64 8, ptr %6) #8
  %134 = call ptr @PyErr_NewException(ptr noundef @.str.30, ptr noundef null, ptr noundef null)
  %135 = load ptr, ptr %4, align 8, !tbaa !8
  %136 = getelementptr inbounds nuw %struct._structmodulestate, ptr %135, i32 0, i32 3
  store ptr %134, ptr %136, align 8, !tbaa !15
  %137 = load ptr, ptr %4, align 8, !tbaa !8
  %138 = getelementptr inbounds nuw %struct._structmodulestate, ptr %137, i32 0, i32 3
  %139 = load ptr, ptr %138, align 8, !tbaa !15
  %140 = icmp eq ptr %139, null
  br i1 %140, label %141, label %142

141:                                              ; preds = %133
  store i32 -1, ptr %2, align 4
  store i32 1, ptr %5, align 4
  br label %151

142:                                              ; preds = %133
  %143 = load ptr, ptr %3, align 8, !tbaa !3
  %144 = load ptr, ptr %4, align 8, !tbaa !8
  %145 = getelementptr inbounds nuw %struct._structmodulestate, ptr %144, i32 0, i32 3
  %146 = load ptr, ptr %145, align 8, !tbaa !15
  %147 = call i32 @PyModule_AddObjectRef(ptr noundef %143, ptr noundef @.str.31, ptr noundef %146)
  %148 = icmp slt i32 %147, 0
  br i1 %148, label %149, label %150

149:                                              ; preds = %142
  store i32 -1, ptr %2, align 4
  store i32 1, ptr %5, align 4
  br label %151

150:                                              ; preds = %142
  store i32 0, ptr %2, align 4
  store i32 1, ptr %5, align 4
  br label %151

151:                                              ; preds = %150, %149, %141, %46, %36, %28, %18
  call void @llvm.lifetime.end.p0(i64 8, ptr %4) #8
  %152 = load i32, ptr %2, align 4
  ret i32 %152
}