; Function Attrs: nounwind uwtable
define internal range(i32 -1, 1) i32 @_structmodule_exec(ptr noundef %0) #0 {
  %2 = getelementptr i8, ptr %0, i64 32
  %.val = load ptr, ptr %2, align 8, !tbaa !3
  %3 = tail call ptr @PyDict_New() #7
  store ptr %3, ptr %.val, align 8, !tbaa !12
  %4 = icmp eq ptr %3, null
  br i1 %4, label %43, label %5

5:                                                ; preds = %1
  %6 = tail call ptr @PyType_FromModuleAndSpec(ptr noundef nonnull %0, ptr noundef nonnull @PyStructType_spec, ptr noundef null) #7
  %7 = getelementptr inbounds nuw i8, ptr %.val, i64 8
  store ptr %6, ptr %7, align 8, !tbaa !14
  %8 = icmp eq ptr %6, null
  br i1 %8, label %43, label %9

9:                                                ; preds = %5
  %10 = tail call i32 @PyModule_AddType(ptr noundef nonnull %0, ptr noundef nonnull %6) #7
  %11 = icmp slt i32 %10, 0
  br i1 %11, label %43, label %12

12:                                               ; preds = %9
  %13 = tail call ptr @PyType_FromModuleAndSpec(ptr noundef nonnull %0, ptr noundef nonnull @unpackiter_type_spec, ptr noundef null) #7
  %14 = getelementptr inbounds nuw i8, ptr %.val, i64 16
  store ptr %13, ptr %14, align 8, !tbaa !15
  %15 = icmp eq ptr %13, null
  br i1 %15, label %43, label %.preheader45

.preheader45:                                     ; preds = %12, %.loopexit
  %16 = phi i8 [ %37, %.loopexit ], [ 120, %12 ]
  %.03550 = phi ptr [ %.1, %.loopexit ], [ @lilendian_table, %12 ]
  %.03649 = phi ptr [ %36, %.loopexit ], [ @native_table, %12 ]
  %17 = load i8, ptr %.03550, align 8, !tbaa !49
  %.not42 = icmp eq i8 %17, 0
  br i1 %.not42, label %.critedge, label %.preheader

.preheader:                                       ; preds = %.preheader45, %34
  %.048 = phi ptr [ %35, %34 ], [ %.03550, %.preheader45 ]
  %18 = phi i8 [ %.pr, %34 ], [ %17, %.preheader45 ]
  %19 = icmp eq i8 %18, %16
  br i1 %19, label %20, label %34

20:                                               ; preds = %.preheader
  %21 = icmp eq ptr %.048, %.03550
  %spec.select.idx = select i1 %21, i64 40, i64 0
  %spec.select = getelementptr i8, ptr %.03550, i64 %spec.select.idx
  %22 = getelementptr inbounds nuw i8, ptr %.048, i64 8
  %23 = load i64, ptr %22, align 8, !tbaa !67
  %24 = getelementptr inbounds nuw i8, ptr %.03649, i64 8
  %25 = load i64, ptr %24, align 8, !tbaa !67
  %.not44 = icmp eq i64 %23, %25
  br i1 %.not44, label %26, label %.loopexit

26:                                               ; preds = %20
  switch i8 %16, label %27 [
    i8 100, label %.loopexit
    i8 102, label %.loopexit
    i8 63, label %.loopexit
  ]

27:                                               ; preds = %26
  %28 = getelementptr inbounds nuw i8, ptr %.03649, i64 32
  %29 = load ptr, ptr %28, align 8, !tbaa !60
  %30 = getelementptr inbounds nuw i8, ptr %.048, i64 32
  store ptr %29, ptr %30, align 8, !tbaa !60
  %31 = getelementptr inbounds nuw i8, ptr %.03649, i64 24
  %32 = load ptr, ptr %31, align 8, !tbaa !64
  %33 = getelementptr inbounds nuw i8, ptr %.048, i64 24
  store ptr %32, ptr %33, align 8, !tbaa !64
  br label %.loopexit

34:                                               ; preds = %.preheader
  %35 = getelementptr i8, ptr %.048, i64 40
  %.pr = load i8, ptr %35, align 8, !tbaa !49
  %.not43 = icmp eq i8 %.pr, 0
  br i1 %.not43, label %.loopexit, label %.preheader, !llvm.loop !68

.loopexit:                                        ; preds = %34, %26, %26, %26, %20, %27
  %.1 = phi ptr [ %spec.select, %20 ], [ %spec.select, %26 ], [ %spec.select, %27 ], [ %spec.select, %26 ], [ %spec.select, %26 ], [ %.03550, %34 ]
  %36 = getelementptr i8, ptr %.03649, i64 40
  %37 = load i8, ptr %36, align 8, !tbaa !49
  %.not = icmp eq i8 %37, 0
  br i1 %.not, label %.critedge, label %.preheader45, !llvm.loop !69

.critedge:                                        ; preds = %.loopexit, %.preheader45
  %38 = tail call ptr @PyErr_NewException(ptr noundef nonnull @.str.30, ptr noundef null, ptr noundef null) #7
  %39 = getelementptr inbounds nuw i8, ptr %.val, i64 24
  store ptr %38, ptr %39, align 8, !tbaa !16
  %40 = icmp eq ptr %38, null
  br i1 %40, label %43, label %41

41:                                               ; preds = %.critedge
  %42 = tail call i32 @PyModule_AddObjectRef(ptr noundef nonnull %0, ptr noundef nonnull @.str.31, ptr noundef nonnull %38) #7
  %.lobit = ashr i32 %42, 31
  br label %43

43:                                               ; preds = %41, %.critedge, %12, %9, %5, %1
  %.037 = phi i32 [ -1, %1 ], [ -1, %5 ], [ -1, %9 ], [ -1, %12 ], [ -1, %.critedge ], [ %.lobit, %41 ]
  ret i32 %.037
}